target datalayout = "e-m:e-p270:32:32-p271:32:32-p272:64:64-i64:64-i128:128-f80:128-n8:16:32:64-S128"
target triple = "x86_64-pc-linux-gnu"

%"class.std::optional" = type { %"struct.std::_Optional_base" }
%"struct.std::_Optional_base" = type { %"struct.std::_Optional_payload" }
%"struct.std::_Optional_payload" = type { %"struct.std::_Optional_payload_base.base", [3 x i8] }
%"struct.std::_Optional_payload_base.base" = type <{ %"union.std::_Optional_payload_base<unsigned int>::_Storage", i8 }>
%"union.std::_Optional_payload_base<unsigned int>::_Storage" = type { i32 }
%"struct.clang::interp::Descriptor" = type { %"class.llvm::PointerUnion", i32, i32, i32, i32, ptr, ptr, %"class.std::optional.2", i8, i8, i8, i8, i8, ptr, ptr, ptr }
%"class.llvm::PointerUnion" = type { %"class.llvm::pointer_union_detail::PointerUnionMembers" }
%"class.llvm::pointer_union_detail::PointerUnionMembers" = type { %"class.llvm::pointer_union_detail::PointerUnionMembers.0" }
%"class.llvm::pointer_union_detail::PointerUnionMembers.0" = type { %"class.llvm::pointer_union_detail::PointerUnionMembers.1" }
%"class.llvm::pointer_union_detail::PointerUnionMembers.1" = type { %"class.llvm::PointerIntPair" }
%"class.llvm::PointerIntPair" = type { %"struct.llvm::detail::PunnedPointer" }
%"struct.llvm::detail::PunnedPointer" = type { [8 x i8] }
%"class.std::optional.2" = type { %"struct.std::_Optional_base.3" }
%"struct.std::_Optional_base.3" = type { %"struct.std::_Optional_payload.5" }
%"struct.std::_Optional_payload.5" = type { %"struct.std::_Optional_payload_base.base.7", [3 x i8] }
%"struct.std::_Optional_payload_base.base.7" = type <{ %"union.std::_Optional_payload_base<clang::interp::PrimType>::_Storage", i8 }>
%"union.std::_Optional_payload_base<clang::interp::PrimType>::_Storage" = type { i32 }
%"struct.std::_Optional_payload_base" = type <{ %"union.std::_Optional_payload_base<unsigned int>::_Storage", i8, [3 x i8] }>
%"struct.std::_Optional_payload_base.6" = type <{ %"union.std::_Optional_payload_base<clang::interp::PrimType>::_Storage", i8, [3 x i8] }>

; Function Attrs: mustprogress nounwind uwtable
define linkonce_odr hidden void @_ZNSt22_Optional_payload_baseIN5clang6interp8PrimTypeEE8_StorageIS2_Lb1EEC2Ev(ptr noundef nonnull align 4 dereferenceable(4) %0) unnamed_addr #0 comdat align 2 {
  %2 = alloca ptr, align 8
  store ptr %0, ptr %2, align 8
  ret void
}

; Function Attrs: mustprogress nounwind uwtable
define linkonce_odr hidden void @_ZNSt22_Optional_payload_baseIN5clang6interp8PrimTypeEEC2Ev(ptr noundef nonnull align 4 dereferenceable(5) %0) unnamed_addr #0 comdat align 2 {
  %2 = alloca ptr, align 8
  store ptr %0, ptr %2, align 8
  %3 = load ptr, ptr %2, align 8
  %4 = getelementptr inbounds nuw %"struct.std::_Optional_payload_base.6", ptr %3, i32 0, i32 0
  call void @_ZNSt22_Optional_payload_baseIN5clang6interp8PrimTypeEE8_StorageIS2_Lb1EEC2Ev(ptr noundef nonnull align 4 dereferenceable(4) %4) #11
  %5 = getelementptr inbounds nuw %"struct.std::_Optional_payload_base.6", ptr %3, i32 0, i32 1
  store i8 0, ptr %5, align 4
  ret void
}

; Function Attrs: mustprogress nounwind uwtable
define linkonce_odr hidden void @_ZNSt17_Optional_payloadIN5clang6interp8PrimTypeELb1ELb1ELb1EEC2Ev(ptr noundef nonnull align 4 dereferenceable(5) %0) unnamed_addr #0 comdat align 2 {
  %2 = alloca ptr, align 8
  store ptr %0, ptr %2, align 8
  %3 = load ptr, ptr %2, align 8
  call void @_ZNSt22_Optional_payload_baseIN5clang6interp8PrimTypeEEC2Ev(ptr noundef nonnull align 4 dereferenceable(5) %3) #11
  ret void
}

; Function Attrs: mustprogress nounwind uwtable
define linkonce_odr hidden noundef nonnull align 4 dereferenceable(4) ptr @_ZNKSt22_Optional_payload_baseIjE6_M_getEv(ptr noundef nonnull align 4 dereferenceable(5) %0) #0 comdat align 2 {
  %2 = alloca ptr, align 8
  store ptr %0, ptr %2, align 8
  %3 = load ptr, ptr %2, align 8
  %4 = getelementptr inbounds nuw %"struct.std::_Optional_payload_base", ptr %3, i32 0, i32 0
  ret ptr %4
}

; Function Attrs: mustprogress nounwind uwtable
define linkonce_odr hidden void @_ZNSt14_Optional_baseIN5clang6interp8PrimTypeELb1ELb1EEC2Ev(ptr noundef nonnull align 4 dereferenceable(8) %0) unnamed_addr #0 comdat align 2 {
  %2 = alloca ptr, align 8
  store ptr %0, ptr %2, align 8
  %3 = load ptr, ptr %2, align 8
  %4 = getelementptr inbounds nuw %"struct.std::_Optional_base.3", ptr %3, i32 0, i32 0
  call void @_ZNSt17_Optional_payloadIN5clang6interp8PrimTypeELb1ELb1ELb1EEC2Ev(ptr noundef nonnull align 4 dereferenceable(5) %4) #11
  ret void
}

; Function Attrs: mustprogress nounwind uwtable
define linkonce_odr hidden noundef nonnull align 4 dereferenceable(4) ptr @_ZNKSt19_Optional_base_implIjSt14_Optional_baseIjLb1ELb1EEE6_M_getEv(ptr noundef nonnull align 1 dereferenceable(1) %0) #0 comdat align 2 {
  %2 = alloca ptr, align 8
  store ptr %0, ptr %2, align 8
  %3 = load ptr, ptr %2, align 8
  br label %4

4:                                                ; preds = %1
  br label %5

5:                                                ; preds = %4
  %6 = getelementptr inbounds nuw %"struct.std::_Optional_base", ptr %3, i32 0, i32 0
  %7 = call noundef nonnull align 4 dereferenceable(4) ptr @_ZNKSt22_Optional_payload_baseIjE6_M_getEv(ptr noundef nonnull align 4 dereferenceable(5) %6) #11
  ret ptr %7
}

; Function Attrs: mustprogress nounwind uwtable
define linkonce_odr hidden noundef zeroext i1 @_ZNKSt19_Optional_base_implIjSt14_Optional_baseIjLb1ELb1EEE13_M_is_engagedEv(ptr noundef nonnull align 1 dereferenceable(1) %0) #0 comdat align 2 {
  %2 = alloca ptr, align 8
  store ptr %0, ptr %2, align 8
  %3 = load ptr, ptr %2, align 8
  %4 = getelementptr inbounds nuw %"struct.std::_Optional_base", ptr %3, i32 0, i32 0
  %5 = getelementptr inbounds nuw %"struct.std::_Optional_payload_base", ptr %4, i32 0, i32 1
  %6 = load i8, ptr %5, align 4
  %7 = trunc i8 %6 to i1
  ret i1 %7
}

; Function Attrs: mustprogress nounwind uwtable
define linkonce_odr hidden void @_ZNSt8optionalIN5clang6interp8PrimTypeEEC2ESt9nullopt_t(ptr noundef nonnull align 4 dereferenceable(8) %0) unnamed_addr #0 comdat align 2 {
  %2 = alloca ptr, align 8
  store ptr %0, ptr %2, align 8
  %3 = load ptr, ptr %2, align 8
  call void @_ZNSt14_Optional_baseIN5clang6interp8PrimTypeELb1ELb1EEC2Ev(ptr noundef nonnull align 4 dereferenceable(8) %3) #11
  ret void
}

; Function Attrs: mustprogress nounwind uwtable
define linkonce_odr hidden noundef i32 @_ZNKRSt8optionalIjE8value_orIiEEjOT_(ptr noundef nonnull align 4 dereferenceable(8) %0, ptr noundef nonnull align 4 dereferenceable(4) %1) #0 comdat align 2 {
  %3 = alloca i32, align 4
  %4 = alloca ptr, align 8
  %5 = alloca ptr, align 8
  store ptr %0, ptr %4, align 8
  store ptr %1, ptr %5, align 8
  %6 = load ptr, ptr %4, align 8
  %7 = call noundef zeroext i1 @_ZNKSt19_Optional_base_implIjSt14_Optional_baseIjLb1ELb1EEE13_M_is_engagedEv(ptr noundef nonnull align 1 dereferenceable(1) %6) #11
  br i1 %7, label %8, label %11

8:                                                ; preds = %2
  %9 = call noundef nonnull align 4 dereferenceable(4) ptr @_ZNKSt19_Optional_base_implIjSt14_Optional_baseIjLb1ELb1EEE6_M_getEv(ptr noundef nonnull align 1 dereferenceable(1) %6) #11
  %10 = load i32, ptr %9, align 4
  store i32 %10, ptr %3, align 4
  br label %14

11:                                               ; preds = %2
  %12 = load ptr, ptr %5, align 8
  %13 = load i32, ptr %12, align 4
  store i32 %13, ptr %3, align 4
  br label %14

14:                                               ; preds = %11, %8
  %15 = load i32, ptr %3, align 4
  ret i32 %15
}

; Function Attrs: mustprogress nounwind uwtable
define linkonce_odr hidden noundef i32 @_ZNK5clang6interp10Descriptor12getAllocSizeEv(ptr noundef nonnull align 8 dereferenceable(80) %0) #0 comdat align 2 {
  %2 = alloca ptr, align 8
  store ptr %0, ptr %2, align 8
  %3 = load ptr, ptr %2, align 8
  %4 = getelementptr inbounds nuw %"struct.clang::interp::Descriptor", ptr %3, i32 0, i32 4
  %5 = load i32, ptr %4, align 4
  ret i32 %5
}

; Function Attrs: mustprogress nounwind uwtable
define dso_local void @_ZN5clang6interp10DescriptorC2ERKN4llvm12PointerUnionIJPKNS_4DeclEPKNS_4ExprEEEEPKS1_St8optionalIjEbNS1_11UnknownSizeE(ptr noundef nonnull align 8 dereferenceable(80) %0, ptr noundef nonnull align 8 dereferenceable(8) %1, ptr noundef %2, i64 %3, i1 noundef zeroext %4) unnamed_addr #0 align 2 {
  %6 = alloca %"class.std::optional", align 4
  %7 = alloca ptr, align 8
  %8 = alloca ptr, align 8
  %9 = alloca ptr, align 8
  %10 = alloca i8, align 1
  %11 = alloca i32, align 4
  %12 = getelementptr inbounds nuw %"class.std::optional", ptr %6, i32 0, i32 0
  %13 = getelementptr inbounds nuw %"struct.std::_Optional_base", ptr %12, i32 0, i32 0
  store i64 %3, ptr %13, align 4
  store ptr %0, ptr %7, align 8
  store ptr %1, ptr %8, align 8
  store ptr %2, ptr %9, align 8
  %14 = zext i1 %4 to i8
  store i8 %14, ptr %10, align 1
  %15 = load ptr, ptr %7, align 8
  %16 = getelementptr inbounds nuw %"struct.clang::interp::Descriptor", ptr %15, i32 0, i32 0
  %17 = load ptr, ptr %8, align 8
  call void @llvm.memcpy.p0.p0.i64(ptr align 8 %16, ptr align 8 %17, i64 8, i1 false)
  %18 = getelementptr inbounds nuw %"struct.clang::interp::Descriptor", ptr %15, i32 0, i32 1
  %19 = load ptr, ptr %9, align 8
  %20 = call noundef i32 @_ZNK5clang6interp10Descriptor12getAllocSizeEv(ptr noundef nonnull align 8 dereferenceable(80) %19)
  %21 = zext i32 %20 to i64
  %22 = add i64 %21, 16
  %23 = trunc i64 %22 to i32
  store i32 %23, ptr %18, align 8
  %24 = getelementptr inbounds nuw %"struct.clang::interp::Descriptor", ptr %15, i32 0, i32 2
  store i32 -1, ptr %24, align 4
  %25 = getelementptr inbounds nuw %"struct.clang::interp::Descriptor", ptr %15, i32 0, i32 3
  store i32 0, ptr %11, align 4
  %26 = call noundef i32 @_ZNKRSt8optionalIjE8value_orIiEEjOT_(ptr noundef nonnull align 4 dereferenceable(8) %6, ptr noundef nonnull align 4 dereferenceable(4) %11)
  store i32 %26, ptr %25, align 8
  %27 = getelementptr inbounds nuw %"struct.clang::interp::Descriptor", ptr %15, i32 0, i32 4
  %28 = getelementptr inbounds nuw %"struct.clang::interp::Descriptor", ptr %15, i32 0, i32 3
  %29 = load i32, ptr %28, align 8
  %30 = zext i32 %29 to i64
  %31 = add i64 %30, 8
  %32 = trunc i64 %31 to i32
  store i32 %32, ptr %27, align 4
  %33 = getelementptr inbounds nuw %"struct.clang::interp::Descriptor", ptr %15, i32 0, i32 5
  store ptr null, ptr %33, align 8
  %34 = getelementptr inbounds nuw %"struct.clang::interp::Descriptor", ptr %15, i32 0, i32 6
  %35 = load ptr, ptr %9, align 8
  store ptr %35, ptr %34, align 8
  %36 = getelementptr inbounds nuw %"struct.clang::interp::Descriptor", ptr %15, i32 0, i32 7
  call void @_ZNSt8optionalIN5clang6interp8PrimTypeEEC2ESt9nullopt_t(ptr noundef nonnull align 4 dereferenceable(8) %36) #11
  %37 = getelementptr inbounds nuw %"struct.clang::interp::Descriptor", ptr %15, i32 0, i32 8
  store i8 1, ptr %37, align 8
  %38 = getelementptr inbounds nuw %"struct.clang::interp::Descriptor", ptr %15, i32 0, i32 9
  store i8 0, ptr %38, align 1
  %39 = getelementptr inbounds nuw %"struct.clang::interp::Descriptor", ptr %15, i32 0, i32 10
  %40 = load i8, ptr %10, align 1
  %41 = trunc i8 %40 to i1
  %42 = zext i1 %41 to i8
  store i8 %42, ptr %39, align 2
  %43 = getelementptr inbounds nuw %"struct.clang::interp::Descriptor", ptr %15, i32 0, i32 11
  store i8 1, ptr %43, align 1
  %44 = getelementptr inbounds nuw %"struct.clang::interp::Descriptor", ptr %15, i32 0, i32 12
  store i8 0, ptr %44, align 4
  %45 = getelementptr inbounds nuw %"struct.clang::interp::Descriptor", ptr %15, i32 0, i32 13
  store ptr @_ZL13ctorArrayDescPN5clang6interp5BlockEPSt4bytebbbbPKNS0_10DescriptorE, ptr %45, align 8
  %46 = getelementptr inbounds nuw %"struct.clang::interp::Descriptor", ptr %15, i32 0, i32 14
  store ptr @_ZL13dtorArrayDescPN5clang6interp5BlockEPSt4bytePKNS0_10DescriptorE, ptr %46, align 8
  %47 = getelementptr inbounds nuw %"struct.clang::interp::Descriptor", ptr %15, i32 0, i32 15
  store ptr @_ZL13moveArrayDescPN5clang6interp5BlockEPSt4byteS4_PKNS0_10DescriptorE, ptr %47, align 8
  ret void
}