; Function Attrs: mustprogress nofree norecurse nosync nounwind willreturn memory(argmem: readwrite) uwtable
define dso_local void @_ZN5clang6interp10DescriptorC2ERKN4llvm12PointerUnionIJPKNS_4DeclEPKNS_4ExprEEEEPKS1_St8optionalIjEbNS1_11UnknownSizeE(ptr nocapture noundef nonnull writeonly align 8 dereferenceable(80) %0, ptr nocapture noundef nonnull readonly align 8 dereferenceable(8) %1, ptr noundef %2, i64 %3, i1 noundef zeroext %4) unnamed_addr #3 align 2 {
  %.sroa.0.0.extract.trunc = trunc i64 %3 to i32
  %6 = zext i1 %4 to i8
  %7 = load i64, ptr %1, align 8
  store i64 %7, ptr %0, align 8
  %8 = getelementptr inbounds nuw i8, ptr %0, i64 8
  %9 = getelementptr inbounds nuw i8, ptr %2, i64 20
  %10 = load i32, ptr %9, align 4
  %11 = add i32 %10, 16
  store i32 %11, ptr %8, align 8
  %12 = getelementptr inbounds nuw i8, ptr %0, i64 12
  store i32 -1, ptr %12, align 4
  %13 = getelementptr inbounds nuw i8, ptr %0, i64 16
  %14 = and i64 %3, 4294967296
  %.not = icmp eq i64 %14, 0
  %.0.i = select i1 %.not, i32 0, i32 %.sroa.0.0.extract.trunc
  store i32 %.0.i, ptr %13, align 8
  %15 = getelementptr inbounds nuw i8, ptr %0, i64 20
  %16 = add i32 %.0.i, 8
  store i32 %16, ptr %15, align 4
  %17 = getelementptr inbounds nuw i8, ptr %0, i64 24
  store ptr null, ptr %17, align 8
  %18 = getelementptr inbounds nuw i8, ptr %0, i64 32
  store ptr %2, ptr %18, align 8
  %19 = getelementptr inbounds i8, ptr %0, i64 44
  store i8 0, ptr %19, align 4
  %20 = getelementptr inbounds nuw i8, ptr %0, i64 48
  store i8 1, ptr %20, align 8
  %21 = getelementptr inbounds nuw i8, ptr %0, i64 49
  store i8 0, ptr %21, align 1
  %22 = getelementptr inbounds nuw i8, ptr %0, i64 50
  store i8 %6, ptr %22, align 2
  %23 = getelementptr inbounds nuw i8, ptr %0, i64 51
  store i8 1, ptr %23, align 1
  %24 = getelementptr inbounds nuw i8, ptr %0, i64 52
  store i8 0, ptr %24, align 4
  %25 = getelementptr inbounds nuw i8, ptr %0, i64 56
  store ptr @_ZL13ctorArrayDescPN5clang6interp5BlockEPSt4bytebbbbPKNS0_10DescriptorE, ptr %25, align 8
  %26 = getelementptr inbounds nuw i8, ptr %0, i64 64
  store ptr @_ZL13dtorArrayDescPN5clang6interp5BlockEPSt4bytePKNS0_10DescriptorE, ptr %26, align 8
  %27 = getelementptr inbounds nuw i8, ptr %0, i64 72
  store ptr @_ZL13moveArrayDescPN5clang6interp5BlockEPSt4byteS4_PKNS0_10DescriptorE, ptr %27, align 8
  ret void
}